target datalayout = "e-m:e-p270:32:32-p271:32:32-p272:64:64-i64:64-i128:128-f80:128-n8:16:32:64-S128"
target triple = "x86_64-pc-linux-gnu"

%struct._object = type { %union.anon, ptr }
%union.anon = type { i64 }
%struct._typeobject = type { %struct.PyVarObject, ptr, i64, i64, ptr, i64, ptr, ptr, ptr, ptr, ptr, ptr, ptr, ptr, ptr, ptr, ptr, ptr, ptr, i64, ptr, ptr, ptr, ptr, i64, ptr, ptr, ptr, ptr, ptr, ptr, ptr, ptr, ptr, i64, ptr, ptr, ptr, ptr, ptr, ptr, ptr, ptr, ptr, ptr, ptr, i32, ptr, ptr, i8, i16 }
%struct.PyVarObject = type { %struct._object, i64 }
%struct.array_state = type { ptr, ptr, ptr, ptr, ptr, ptr, ptr }
%struct.arraydescr = type { i8, i32, ptr, ptr, ptr, ptr, i32, i32 }
%struct.PyModuleObject = type { %struct._object, ptr, ptr, ptr, ptr, ptr }
%struct.arrayobject = type { %struct.PyVarObject, ptr, i64, ptr, ptr, i64 }

@PyExc_TypeError = external global ptr, align 8
@PyExc_IndexError = external global ptr, align 8
@.str.128 = private unnamed_addr constant [25 x i8] c"array index out of range\00", align 1
@PySlice_Type = external global %struct._typeobject, align 8
@.str.130 = private unnamed_addr constant [31 x i8] c"array indices must be integers\00", align 1

; Function Attrs: nounwind uwtable
define internal ptr @getarrayitem(ptr noundef %0, i64 noundef %1) #0 {
  %3 = alloca ptr, align 8
  %4 = alloca i64, align 8
  %5 = alloca ptr, align 8
  store ptr %0, ptr %3, align 8, !tbaa !3
  store i64 %1, ptr %4, align 8, !tbaa !21
  call void @llvm.lifetime.start.p0(i64 8, ptr %5) #8
  %6 = load ptr, ptr %3, align 8, !tbaa !3
  store ptr %6, ptr %5, align 8, !tbaa !68
  %7 = load ptr, ptr %5, align 8, !tbaa !68
  %8 = getelementptr inbounds nuw %struct.arrayobject, ptr %7, i32 0, i32 3
  %9 = load ptr, ptr %8, align 8, !tbaa !99
  %10 = getelementptr inbounds nuw %struct.arraydescr, ptr %9, i32 0, i32 2
  %11 = load ptr, ptr %10, align 8, !tbaa !124
  %12 = load ptr, ptr %5, align 8, !tbaa !68
  %13 = load i64, ptr %4, align 8, !tbaa !21
  %14 = call ptr %11(ptr noundef %12, i64 noundef %13)
  call void @llvm.lifetime.end.p0(i64 8, ptr %5) #8
  ret ptr %14
}

; Function Attrs: inlinehint nounwind uwtable
define internal ptr @_PyModule_GetState(ptr noundef %0) #3 {
  %2 = alloca ptr, align 8
  store ptr %0, ptr %2, align 8, !tbaa !3
  %3 = load ptr, ptr %2, align 8, !tbaa !3
  %4 = getelementptr inbounds nuw %struct.PyModuleObject, ptr %3, i32 0, i32 3
  %5 = load ptr, ptr %4, align 8, !tbaa !65
  ret ptr %5
}

; Function Attrs: inlinehint nounwind uwtable
define internal i32 @Py_IS_TYPE(ptr noundef %0, ptr noundef %1) #3 {
  %3 = alloca ptr, align 8
  %4 = alloca ptr, align 8
  store ptr %0, ptr %3, align 8, !tbaa !3
  store ptr %1, ptr %4, align 8, !tbaa !18
  %5 = load ptr, ptr %3, align 8, !tbaa !3
  %6 = call ptr @_Py_TYPE(ptr noundef %5)
  %7 = load ptr, ptr %4, align 8, !tbaa !18
  %8 = icmp eq ptr %6, %7
  %9 = zext i1 %8 to i32
  ret i32 %9
}

; Function Attrs: nounwind uwtable
define internal ptr @array_item(ptr noundef %0, i64 noundef %1) #0 {
  %3 = alloca ptr, align 8
  %4 = alloca ptr, align 8
  %5 = alloca i64, align 8
  store ptr %0, ptr %4, align 8, !tbaa !68
  store i64 %1, ptr %5, align 8, !tbaa !21
  %6 = load i64, ptr %5, align 8, !tbaa !21
  %7 = icmp slt i64 %6, 0
  br i1 %7, label %13, label %8

8:                                                ; preds = %2
  %9 = load i64, ptr %5, align 8, !tbaa !21
  %10 = load ptr, ptr %4, align 8, !tbaa !68
  %11 = call i64 @Py_SIZE(ptr noundef %10)
  %12 = icmp sge i64 %9, %11
  br i1 %12, label %13, label %15

13:                                               ; preds = %8, %2
  %14 = load ptr, ptr @PyExc_IndexError, align 8, !tbaa !3
  call void @PyErr_SetString(ptr noundef %14, ptr noundef @.str.128)
  store ptr null, ptr %3, align 8
  br label %19

15:                                               ; preds = %8
  %16 = load ptr, ptr %4, align 8, !tbaa !68
  %17 = load i64, ptr %5, align 8, !tbaa !21
  %18 = call ptr @getarrayitem(ptr noundef %16, i64 noundef %17)
  store ptr %18, ptr %3, align 8
  br label %19

19:                                               ; preds = %15, %13
  %20 = load ptr, ptr %3, align 8
  ret ptr %20
}

; Function Attrs: inlinehint nounwind uwtable
define internal i64 @Py_SIZE(ptr noundef %0) #3 {
  %2 = alloca ptr, align 8
  store ptr %0, ptr %2, align 8, !tbaa !3
  %3 = load ptr, ptr %2, align 8, !tbaa !3
  %4 = getelementptr inbounds nuw %struct.PyVarObject, ptr %3, i32 0, i32 1
  %5 = load i64, ptr %4, align 8, !tbaa !62
  ret i64 %5
}

; Function Attrs: nounwind uwtable
define internal ptr @get_array_state(ptr noundef %0) #0 {
  %2 = alloca ptr, align 8
  store ptr %0, ptr %2, align 8, !tbaa !3
  %3 = load ptr, ptr %2, align 8, !tbaa !3
  %4 = call ptr @_PyModule_GetState(ptr noundef %3)
  ret ptr %4
}

; Function Attrs: inlinehint nounwind uwtable
define internal ptr @_Py_TYPE(ptr noundef %0) #3 {
  %2 = alloca ptr, align 8
  store ptr %0, ptr %2, align 8, !tbaa !3
  %3 = load ptr, ptr %2, align 8, !tbaa !3
  %4 = getelementptr inbounds nuw %struct._object, ptr %3, i32 0, i32 1
  %5 = load ptr, ptr %4, align 8, !tbaa !32
  ret ptr %5
}

; Function Attrs: nounwind uwtable
define internal ptr @array_subscr(ptr noundef %0, ptr noundef %1) #0 {
  %3 = alloca ptr, align 8
  %4 = alloca ptr, align 8
  %5 = alloca ptr, align 8
  %6 = alloca ptr, align 8
  %7 = alloca i64, align 8
  %8 = alloca i32, align 4
  %9 = alloca i64, align 8
  %10 = alloca i64, align 8
  %11 = alloca i64, align 8
  %12 = alloca i64, align 8
  %13 = alloca i64, align 8
  %14 = alloca i64, align 8
  %15 = alloca ptr, align 8
  %16 = alloca ptr, align 8
  %17 = alloca i32, align 4
  %18 = alloca ptr, align 8
  store ptr %0, ptr %4, align 8, !tbaa !68
  store ptr %1, ptr %5, align 8, !tbaa !3
  call void @llvm.lifetime.start.p0(i64 8, ptr %6) #8
  %19 = load ptr, ptr %4, align 8, !tbaa !68
  %20 = call ptr @_Py_TYPE(ptr noundef %19)
  %21 = call ptr @PyType_GetModuleByDef(ptr noundef %20, ptr noundef @arraymodule)
  %22 = call ptr @get_array_state(ptr noundef %21)
  store ptr %22, ptr %6, align 8, !tbaa !8
  %23 = load ptr, ptr %5, align 8, !tbaa !3
  %24 = call i32 @PyIndex_Check(ptr noundef %23)
  %25 = icmp ne i32 %24, 0
  br i1 %25, label %26, label %49

26:                                               ; preds = %2
  call void @llvm.lifetime.start.p0(i64 8, ptr %7) #8
  %27 = load ptr, ptr %5, align 8, !tbaa !3
  %28 = load ptr, ptr @PyExc_IndexError, align 8, !tbaa !3
  %29 = call i64 @PyNumber_AsSsize_t(ptr noundef %27, ptr noundef %28)
  store i64 %29, ptr %7, align 8, !tbaa !21
  %30 = load i64, ptr %7, align 8, !tbaa !21
  %31 = icmp eq i64 %30, -1
  br i1 %31, label %32, label %36

32:                                               ; preds = %26
  %33 = call ptr @PyErr_Occurred()
  %34 = icmp ne ptr %33, null
  br i1 %34, label %35, label %36

35:                                               ; preds = %32
  store ptr null, ptr %3, align 8
  store i32 1, ptr %8, align 4
  br label %48

36:                                               ; preds = %32, %26
  %37 = load i64, ptr %7, align 8, !tbaa !21
  %38 = icmp slt i64 %37, 0
  br i1 %38, label %39, label %44

39:                                               ; preds = %36
  %40 = load ptr, ptr %4, align 8, !tbaa !68
  %41 = call i64 @Py_SIZE(ptr noundef %40)
  %42 = load i64, ptr %7, align 8, !tbaa !21
  %43 = add i64 %42, %41
  store i64 %43, ptr %7, align 8, !tbaa !21
  br label %44

44:                                               ; preds = %39, %36
  %45 = load ptr, ptr %4, align 8, !tbaa !68
  %46 = load i64, ptr %7, align 8, !tbaa !21
  %47 = call ptr @array_item(ptr noundef %45, i64 noundef %46)
  store ptr %47, ptr %3, align 8
  store i32 1, ptr %8, align 4
  br label %48

48:                                               ; preds = %44, %35
  call void @llvm.lifetime.end.p0(i64 8, ptr %7) #8
  br label %160

49:                                               ; preds = %2
  %50 = load ptr, ptr %5, align 8, !tbaa !3
  %51 = call i32 @Py_IS_TYPE(ptr noundef %50, ptr noundef @PySlice_Type)
  %52 = icmp ne i32 %51, 0
  br i1 %52, label %53, label %158

53:                                               ; preds = %49
  call void @llvm.lifetime.start.p0(i64 8, ptr %9) #8
  call void @llvm.lifetime.start.p0(i64 8, ptr %10) #8
  call void @llvm.lifetime.start.p0(i64 8, ptr %11) #8
  call void @llvm.lifetime.start.p0(i64 8, ptr %12) #8
  call void @llvm.lifetime.start.p0(i64 8, ptr %13) #8
  call void @llvm.lifetime.start.p0(i64 8, ptr %14) #8
  call void @llvm.lifetime.start.p0(i64 8, ptr %15) #8
  call void @llvm.lifetime.start.p0(i64 8, ptr %16) #8
  call void @llvm.lifetime.start.p0(i64 4, ptr %17) #8
  %54 = load ptr, ptr %4, align 8, !tbaa !68
  %55 = getelementptr inbounds nuw %struct.arrayobject, ptr %54, i32 0, i32 3
  %56 = load ptr, ptr %55, align 8, !tbaa !99
  %57 = getelementptr inbounds nuw %struct.arraydescr, ptr %56, i32 0, i32 1
  %58 = load i32, ptr %57, align 4, !tbaa !52
  store i32 %58, ptr %17, align 4, !tbaa !12
  %59 = load ptr, ptr %5, align 8, !tbaa !3
  %60 = call i32 @PySlice_Unpack(ptr noundef %59, ptr noundef %9, ptr noundef %10, ptr noundef %11)
  %61 = icmp slt i32 %60, 0
  br i1 %61, label %62, label %63

62:                                               ; preds = %53
  store ptr null, ptr %3, align 8
  store i32 1, ptr %8, align 4
  br label %157

63:                                               ; preds = %53
  %64 = load ptr, ptr %4, align 8, !tbaa !68
  %65 = call i64 @Py_SIZE(ptr noundef %64)
  %66 = load i64, ptr %11, align 8, !tbaa !21
  %67 = call i64 @PySlice_AdjustIndices(i64 noundef %65, ptr noundef %9, ptr noundef %10, i64 noundef %66)
  store i64 %67, ptr %12, align 8, !tbaa !21
  %68 = load i64, ptr %12, align 8, !tbaa !21
  %69 = icmp sle i64 %68, 0
  br i1 %69, label %70, label %78

70:                                               ; preds = %63
  %71 = load ptr, ptr %6, align 8, !tbaa !8
  %72 = getelementptr inbounds nuw %struct.array_state, ptr %71, i32 0, i32 0
  %73 = load ptr, ptr %72, align 8, !tbaa !9
  %74 = load ptr, ptr %4, align 8, !tbaa !68
  %75 = getelementptr inbounds nuw %struct.arrayobject, ptr %74, i32 0, i32 3
  %76 = load ptr, ptr %75, align 8, !tbaa !99
  %77 = call ptr @newarrayobject(ptr noundef %73, i64 noundef 0, ptr noundef %76)
  store ptr %77, ptr %3, align 8
  store i32 1, ptr %8, align 4
  br label %157

78:                                               ; preds = %63
  %79 = load i64, ptr %11, align 8, !tbaa !21
  %80 = icmp eq i64 %79, 1
  br i1 %80, label %81, label %111

81:                                               ; preds = %78
  call void @llvm.lifetime.start.p0(i64 8, ptr %18) #8
  %82 = load ptr, ptr %6, align 8, !tbaa !8
  %83 = getelementptr inbounds nuw %struct.array_state, ptr %82, i32 0, i32 0
  %84 = load ptr, ptr %83, align 8, !tbaa !9
  %85 = load i64, ptr %12, align 8, !tbaa !21
  %86 = load ptr, ptr %4, align 8, !tbaa !68
  %87 = getelementptr inbounds nuw %struct.arrayobject, ptr %86, i32 0, i32 3
  %88 = load ptr, ptr %87, align 8, !tbaa !99
  %89 = call ptr @newarrayobject(ptr noundef %84, i64 noundef %85, ptr noundef %88)
  store ptr %89, ptr %18, align 8, !tbaa !3
  %90 = load ptr, ptr %18, align 8, !tbaa !3
  %91 = icmp eq ptr %90, null
  br i1 %91, label %92, label %93

92:                                               ; preds = %81
  store ptr null, ptr %3, align 8
  store i32 1, ptr %8, align 4
  br label %110

93:                                               ; preds = %81
  %94 = load ptr, ptr %18, align 8, !tbaa !3
  %95 = getelementptr inbounds nuw %struct.arrayobject, ptr %94, i32 0, i32 1
  %96 = load ptr, ptr %95, align 8, !tbaa !70
  %97 = load ptr, ptr %4, align 8, !tbaa !68
  %98 = getelementptr inbounds nuw %struct.arrayobject, ptr %97, i32 0, i32 1
  %99 = load ptr, ptr %98, align 8, !tbaa !70
  %100 = load i64, ptr %9, align 8, !tbaa !21
  %101 = load i32, ptr %17, align 4, !tbaa !12
  %102 = sext i32 %101 to i64
  %103 = mul i64 %100, %102
  %104 = getelementptr i8, ptr %99, i64 %103
  %105 = load i64, ptr %12, align 8, !tbaa !21
  %106 = load i32, ptr %17, align 4, !tbaa !12
  %107 = sext i32 %106 to i64
  %108 = mul i64 %105, %107
  call void @llvm.memcpy.p0.p0.i64(ptr align 1 %96, ptr align 1 %104, i64 %108, i1 false)
  %109 = load ptr, ptr %18, align 8, !tbaa !3
  store ptr %109, ptr %3, align 8
  store i32 1, ptr %8, align 4
  br label %110

110:                                              ; preds = %93, %92
  call void @llvm.lifetime.end.p0(i64 8, ptr %18) #8
  br label %157

111:                                              ; preds = %78
  %112 = load ptr, ptr %6, align 8, !tbaa !8
  %113 = getelementptr inbounds nuw %struct.array_state, ptr %112, i32 0, i32 0
  %114 = load ptr, ptr %113, align 8, !tbaa !9
  %115 = load i64, ptr %12, align 8, !tbaa !21
  %116 = load ptr, ptr %4, align 8, !tbaa !68
  %117 = getelementptr inbounds nuw %struct.arrayobject, ptr %116, i32 0, i32 3
  %118 = load ptr, ptr %117, align 8, !tbaa !99
  %119 = call ptr @newarrayobject(ptr noundef %114, i64 noundef %115, ptr noundef %118)
  store ptr %119, ptr %15, align 8, !tbaa !3
  %120 = load ptr, ptr %15, align 8, !tbaa !3
  %121 = icmp ne ptr %120, null
  br i1 %121, label %123, label %122

122:                                              ; preds = %111
  store ptr null, ptr %3, align 8
  store i32 1, ptr %8, align 4
  br label %157

123:                                              ; preds = %111
  %124 = load ptr, ptr %15, align 8, !tbaa !3
  store ptr %124, ptr %16, align 8, !tbaa !68
  %125 = load i64, ptr %9, align 8, !tbaa !21
  store i64 %125, ptr %14, align 8, !tbaa !21
  store i64 0, ptr %13, align 8, !tbaa !21
  br label %126

126:                                              ; preds = %149, %123
  %127 = load i64, ptr %13, align 8, !tbaa !21
  %128 = load i64, ptr %12, align 8, !tbaa !21
  %129 = icmp slt i64 %127, %128
  br i1 %129, label %130, label %155

130:                                              ; preds = %126
  %131 = load ptr, ptr %16, align 8, !tbaa !68
  %132 = getelementptr inbounds nuw %struct.arrayobject, ptr %131, i32 0, i32 1
  %133 = load ptr, ptr %132, align 8, !tbaa !70
  %134 = load i64, ptr %13, align 8, !tbaa !21
  %135 = load i32, ptr %17, align 4, !tbaa !12
  %136 = sext i32 %135 to i64
  %137 = mul i64 %134, %136
  %138 = getelementptr i8, ptr %133, i64 %137
  %139 = load ptr, ptr %4, align 8, !tbaa !68
  %140 = getelementptr inbounds nuw %struct.arrayobject, ptr %139, i32 0, i32 1
  %141 = load ptr, ptr %140, align 8, !tbaa !70
  %142 = load i64, ptr %14, align 8, !tbaa !21
  %143 = load i32, ptr %17, align 4, !tbaa !12
  %144 = sext i32 %143 to i64
  %145 = mul i64 %142, %144
  %146 = getelementptr i8, ptr %141, i64 %145
  %147 = load i32, ptr %17, align 4, !tbaa !12
  %148 = sext i32 %147 to i64
  call void @llvm.memcpy.p0.p0.i64(ptr align 1 %138, ptr align 1 %146, i64 %148, i1 false)
  br label %149

149:                                              ; preds = %130
  %150 = load i64, ptr %11, align 8, !tbaa !21
  %151 = load i64, ptr %14, align 8, !tbaa !21
  %152 = add i64 %151, %150
  store i64 %152, ptr %14, align 8, !tbaa !21
  %153 = load i64, ptr %13, align 8, !tbaa !21
  %154 = add i64 %153, 1
  store i64 %154, ptr %13, align 8, !tbaa !21
  br label %126, !llvm.loop !127

155:                                              ; preds = %126
  %156 = load ptr, ptr %15, align 8, !tbaa !3
  store ptr %156, ptr %3, align 8
  store i32 1, ptr %8, align 4
  br label %157

157:                                              ; preds = %155, %122, %110, %70, %62
  call void @llvm.lifetime.end.p0(i64 4, ptr %17) #8
  call void @llvm.lifetime.end.p0(i64 8, ptr %16) #8
  call void @llvm.lifetime.end.p0(i64 8, ptr %15) #8
  call void @llvm.lifetime.end.p0(i64 8, ptr %14) #8
  call void @llvm.lifetime.end.p0(i64 8, ptr %13) #8
  call void @llvm.lifetime.end.p0(i64 8, ptr %12) #8
  call void @llvm.lifetime.end.p0(i64 8, ptr %11) #8
  call void @llvm.lifetime.end.p0(i64 8, ptr %10) #8
  call void @llvm.lifetime.end.p0(i64 8, ptr %9) #8
  br label %160

158:                                              ; preds = %49
  %159 = load ptr, ptr @PyExc_TypeError, align 8, !tbaa !3
  call void @PyErr_SetString(ptr noundef %159, ptr noundef @.str.130)
  store ptr null, ptr %3, align 8
  store i32 1, ptr %8, align 4
  br label %160

160:                                              ; preds = %158, %157, %48
  call void @llvm.lifetime.end.p0(i64 8, ptr %6) #8
  %161 = load ptr, ptr %3, align 8
  ret ptr %161
}