; Function Attrs: nounwind uwtable
define internal ptr @array_subscr(ptr noundef %0, ptr noundef %1) #0 {
  %3 = alloca i64, align 8
  %4 = alloca i64, align 8
  %5 = alloca i64, align 8
  %6 = getelementptr i8, ptr %0, i64 8
  %.val54 = load ptr, ptr %6, align 8, !tbaa !19
  %7 = tail call ptr @PyType_GetModuleByDef(ptr noundef %.val54, ptr noundef nonnull @arraymodule) #11
  %8 = getelementptr i8, ptr %7, i64 32
  %.val = load ptr, ptr %8, align 8, !tbaa !3
  %9 = tail call i32 @PyIndex_Check(ptr noundef %1) #11
  %.not = icmp eq i32 %9, 0
  br i1 %.not, label %29, label %10

10:                                               ; preds = %2
  %11 = load ptr, ptr @PyExc_IndexError, align 8, !tbaa !18
  %12 = tail call i64 @PyNumber_AsSsize_t(ptr noundef %1, ptr noundef %11) #11
  %13 = icmp eq i64 %12, -1
  br i1 %13, label %14, label %16

14:                                               ; preds = %10
  %15 = tail call ptr @PyErr_Occurred() #11
  %.not53 = icmp eq ptr %15, null
  br i1 %.not53, label %.thread, label %array_item.exit

16:                                               ; preds = %10
  %17 = icmp slt i64 %12, 0
  br i1 %17, label %.thread, label %..thread59_crit_edge

..thread59_crit_edge:                             ; preds = %16
  %.phi.trans.insert = getelementptr i8, ptr %0, i64 16
  %.val.i.pre = load i64, ptr %.phi.trans.insert, align 8, !tbaa !40
  br label %.thread59

.thread:                                          ; preds = %14, %16
  %18 = getelementptr i8, ptr %0, i64 16
  %.val56 = load i64, ptr %18, align 8, !tbaa !40
  %19 = add i64 %.val56, %12
  %20 = icmp slt i64 %19, 0
  br i1 %20, label %21, label %.thread59

.thread59:                                        ; preds = %..thread59_crit_edge, %.thread
  %.val.i = phi i64 [ %.val56, %.thread ], [ %.val.i.pre, %..thread59_crit_edge ]
  %.04361 = phi i64 [ %19, %.thread ], [ %12, %..thread59_crit_edge ]
  %.not.i = icmp slt i64 %.04361, %.val.i
  br i1 %.not.i, label %23, label %21

21:                                               ; preds = %.thread59, %.thread
  %22 = load ptr, ptr @PyExc_IndexError, align 8, !tbaa !18
  tail call void @PyErr_SetString(ptr noundef %22, ptr noundef nonnull @.str.128) #11
  br label %array_item.exit

23:                                               ; preds = %.thread59
  %24 = getelementptr inbounds nuw i8, ptr %0, i64 40
  %25 = load ptr, ptr %24, align 8, !tbaa !76
  %26 = getelementptr inbounds nuw i8, ptr %25, i64 8
  %27 = load ptr, ptr %26, align 8, !tbaa !97
  %28 = tail call ptr %27(ptr noundef nonnull %0, i64 noundef %.04361) #11
  br label %array_item.exit

29:                                               ; preds = %2
  %30 = getelementptr i8, ptr %1, i64 8
  %.val57 = load ptr, ptr %30, align 8, !tbaa !19
  %.not62 = icmp eq ptr %.val57, @PySlice_Type
  br i1 %.not62, label %31, label %95

31:                                               ; preds = %29
  call void @llvm.lifetime.start.p0(i64 8, ptr nonnull %3) #11
  call void @llvm.lifetime.start.p0(i64 8, ptr nonnull %4) #11
  call void @llvm.lifetime.start.p0(i64 8, ptr nonnull %5) #11
  %32 = getelementptr inbounds nuw i8, ptr %0, i64 40
  %33 = load ptr, ptr %32, align 8, !tbaa !76
  %34 = getelementptr inbounds nuw i8, ptr %33, i64 4
  %35 = load i32, ptr %34, align 4, !tbaa !49
  %36 = call i32 @PySlice_Unpack(ptr noundef nonnull %1, ptr noundef nonnull %3, ptr noundef nonnull %4, ptr noundef nonnull %5) #11
  %37 = icmp slt i32 %36, 0
  br i1 %37, label %newarrayobject.exit, label %38

38:                                               ; preds = %31
  %39 = getelementptr i8, ptr %0, i64 16
  %.val55 = load i64, ptr %39, align 8, !tbaa !40
  %40 = load i64, ptr %5, align 8, !tbaa !64
  %41 = call i64 @PySlice_AdjustIndices(i64 noundef %.val55, ptr noundef nonnull %3, ptr noundef nonnull %4, i64 noundef %40) #11
  %42 = icmp slt i64 %41, 1
  br i1 %42, label %43, label %62

43:                                               ; preds = %38
  %44 = load ptr, ptr %32, align 8, !tbaa !76
  %45 = getelementptr inbounds nuw i8, ptr %44, i64 4
  %46 = load i32, ptr %45, align 4, !tbaa !49
  %47 = sext i32 %46 to i64
  %48 = sdiv i64 9223372036854775807, %47
  %49 = icmp slt i64 %48, 0
  br i1 %49, label %50, label %52

50:                                               ; preds = %43
  %51 = call ptr @PyErr_NoMemory() #11
  br label %newarrayobject.exit

52:                                               ; preds = %43
  %53 = load ptr, ptr %.val, align 8, !tbaa !12
  %54 = getelementptr inbounds nuw i8, ptr %53, i64 304
  %55 = load ptr, ptr %54, align 8, !tbaa !81
  %56 = call ptr %55(ptr noundef %53, i64 noundef 0) #11
  %57 = icmp eq ptr %56, null
  br i1 %57, label %newarrayobject.exit, label %58

58:                                               ; preds = %52
  %59 = getelementptr inbounds nuw i8, ptr %56, i64 40
  store ptr %44, ptr %59, align 8, !tbaa !76
  %60 = getelementptr inbounds nuw i8, ptr %56, i64 48
  %61 = getelementptr inbounds nuw i8, ptr %56, i64 16
  call void @llvm.memset.p0.i64(ptr noundef nonnull align 8 dereferenceable(24) %61, i8 0, i64 24, i1 false)
  call void @llvm.memset.p0.i64(ptr noundef nonnull align 8 dereferenceable(16) %60, i8 0, i64 16, i1 false)
  br label %newarrayobject.exit

62:                                               ; preds = %38
  %63 = load i64, ptr %5, align 8, !tbaa !64
  %64 = icmp eq i64 %63, 1
  %65 = load ptr, ptr %.val, align 8, !tbaa !12
  %66 = load ptr, ptr %32, align 8, !tbaa !76
  %67 = call fastcc ptr @newarrayobject(ptr noundef %65, i64 noundef %41, ptr noundef %66)
  %68 = icmp eq ptr %67, null
  br i1 %64, label %69, label %80

69:                                               ; preds = %62
  br i1 %68, label %newarrayobject.exit, label %70

70:                                               ; preds = %69
  %71 = getelementptr inbounds nuw i8, ptr %67, i64 24
  %72 = load ptr, ptr %71, align 8, !tbaa !53
  %73 = getelementptr inbounds nuw i8, ptr %0, i64 24
  %74 = load ptr, ptr %73, align 8, !tbaa !53
  %75 = load i64, ptr %3, align 8, !tbaa !64
  %76 = sext i32 %35 to i64
  %77 = mul i64 %75, %76
  %78 = getelementptr i8, ptr %74, i64 %77
  %79 = mul i64 %41, %76
  call void @llvm.memcpy.p0.p0.i64(ptr align 1 %72, ptr align 1 %78, i64 %79, i1 false)
  br label %newarrayobject.exit

80:                                               ; preds = %62
  br i1 %68, label %newarrayobject.exit, label %.lr.ph

.lr.ph:                                           ; preds = %80
  %81 = load i64, ptr %3, align 8, !tbaa !64
  %82 = getelementptr inbounds nuw i8, ptr %67, i64 24
  %83 = sext i32 %35 to i64
  %84 = getelementptr inbounds nuw i8, ptr %0, i64 24
  br label %85

85:                                               ; preds = %.lr.ph, %85
  %.04464 = phi i64 [ 0, %.lr.ph ], [ %94, %85 ]
  %.04563 = phi i64 [ %81, %.lr.ph ], [ %93, %85 ]
  %86 = load ptr, ptr %82, align 8, !tbaa !53
  %87 = mul i64 %.04464, %83
  %88 = getelementptr i8, ptr %86, i64 %87
  %89 = load ptr, ptr %84, align 8, !tbaa !53
  %90 = mul i64 %.04563, %83
  %91 = getelementptr i8, ptr %89, i64 %90
  call void @llvm.memcpy.p0.p0.i64(ptr align 1 %88, ptr align 1 %91, i64 %83, i1 false)
  %92 = load i64, ptr %5, align 8, !tbaa !64
  %93 = add i64 %92, %.04563
  %94 = add nuw nsw i64 %.04464, 1
  %exitcond.not = icmp eq i64 %94, %41
  br i1 %exitcond.not, label %newarrayobject.exit, label %85, !llvm.loop !107

newarrayobject.exit:                              ; preds = %85, %58, %52, %50, %80, %70, %69, %31
  %.2 = phi ptr [ null, %31 ], [ %67, %70 ], [ null, %69 ], [ null, %80 ], [ %51, %50 ], [ %56, %58 ], [ null, %52 ], [ %67, %85 ]
  call void @llvm.lifetime.end.p0(i64 8, ptr nonnull %5) #11
  call void @llvm.lifetime.end.p0(i64 8, ptr nonnull %4) #11
  call void @llvm.lifetime.end.p0(i64 8, ptr nonnull %3) #11
  br label %array_item.exit

95:                                               ; preds = %29
  %96 = load ptr, ptr @PyExc_TypeError, align 8, !tbaa !18
  tail call void @PyErr_SetString(ptr noundef %96, ptr noundef nonnull @.str.130) #11
  br label %array_item.exit

array_item.exit:                                  ; preds = %23, %21, %14, %95, %newarrayobject.exit
  %.1 = phi ptr [ %.2, %newarrayobject.exit ], [ null, %95 ], [ null, %14 ], [ null, %21 ], [ %28, %23 ]
  ret ptr %.1
}